; Function Attrs: nofree norecurse nosync nounwind memory(readwrite, inaccessiblemem: none) uwtable
define internal range(i64 -1, 2) i64 @cp949_encode(ptr readnone captures(none) %0, ptr readnone captures(none) %1, i32 noundef %2, ptr noundef readonly captures(none) %3, ptr noundef captures(none) %4, i64 noundef %5, ptr noundef captures(none) %6, i64 noundef %7, i32 %8) #6 {
  %10 = load i64, ptr %4, align 8, !tbaa !48
  %11 = icmp slt i64 %10, %5
  br i1 %11, label %.lr.ph, label %.thread

.lr.ph:                                           ; preds = %9, %62
  %12 = phi i64 [ %64, %62 ], [ %10, %9 ]
  %.03452 = phi i64 [ %67, %62 ], [ %7, %9 ]
  switch i32 %2, label %21 [
    i32 1, label %13
    i32 2, label %17
  ]

13:                                               ; preds = %.lr.ph
  %14 = getelementptr i8, ptr %3, i64 %12
  %15 = load i8, ptr %14, align 1, !tbaa !34
  %16 = zext i8 %15 to i32
  br label %PyUnicode_READ.exit

17:                                               ; preds = %.lr.ph
  %18 = getelementptr i16, ptr %3, i64 %12
  %19 = load i16, ptr %18, align 2, !tbaa !49
  %20 = zext i16 %19 to i32
  br label %PyUnicode_READ.exit

21:                                               ; preds = %.lr.ph
  %22 = getelementptr i32, ptr %3, i64 %12
  %23 = load i32, ptr %22, align 4, !tbaa !50
  br label %PyUnicode_READ.exit

PyUnicode_READ.exit:                              ; preds = %13, %17, %21
  %.0.i = phi i32 [ %16, %13 ], [ %20, %17 ], [ %23, %21 ]
  %24 = icmp ult i32 %.0.i, 128
  br i1 %24, label %25, label %30

25:                                               ; preds = %PyUnicode_READ.exit
  %26 = icmp slt i64 %.03452, 1
  br i1 %26, label %.thread, label %27

27:                                               ; preds = %25
  %28 = trunc nuw nsw i32 %.0.i to i8
  %29 = load ptr, ptr %6, align 8, !tbaa !37
  store i8 %28, ptr %29, align 1, !tbaa !34
  br label %62, !llvm.loop !62

30:                                               ; preds = %PyUnicode_READ.exit
  %31 = icmp ugt i32 %.0.i, 65535
  br i1 %31, label %.thread, label %32

32:                                               ; preds = %30
  %33 = icmp slt i64 %.03452, 2
  br i1 %33, label %.thread, label %34

34:                                               ; preds = %32
  %35 = lshr i32 %.0.i, 8
  %36 = zext nneg i32 %35 to i64
  %37 = getelementptr [256 x %struct.unim_index], ptr @cp949_encmap, i64 0, i64 %36
  %38 = load ptr, ptr %37, align 16, !tbaa !52
  %.not = icmp eq ptr %38, null
  br i1 %.not, label %.thread, label %39

39:                                               ; preds = %34
  %40 = and i32 %.0.i, 255
  %41 = getelementptr inbounds nuw i8, ptr %37, i64 8
  %42 = load i8, ptr %41, align 8, !tbaa !55
  %43 = zext i8 %42 to i32
  %.not43 = icmp samesign ult i32 %40, %43
  br i1 %.not43, label %.thread, label %44

44:                                               ; preds = %39
  %45 = getelementptr inbounds nuw i8, ptr %37, i64 9
  %46 = load i8, ptr %45, align 1, !tbaa !56
  %47 = zext i8 %46 to i32
  %.not44 = icmp samesign ugt i32 %40, %47
  br i1 %.not44, label %.thread, label %48

48:                                               ; preds = %44
  %49 = sub nsw i32 %40, %43
  %50 = zext i32 %49 to i64
  %51 = getelementptr i16, ptr %38, i64 %50
  %52 = load i16, ptr %51, align 2, !tbaa !49
  %.not45 = icmp eq i16 %52, -1
  br i1 %.not45, label %.thread, label %53

53:                                               ; preds = %48
  %54 = lshr i16 %52, 8
  %55 = trunc nuw i16 %54 to i8
  %56 = or i8 %55, -128
  %57 = load ptr, ptr %6, align 8, !tbaa !37
  store i8 %56, ptr %57, align 1, !tbaa !34
  %58 = trunc i16 %52 to i8
  %59 = or i8 %58, -128
  %.not4675 = icmp slt i16 %52, 0
  %.sink = select i1 %.not4675, i8 %58, i8 %59
  %60 = load ptr, ptr %6, align 8, !tbaa !37
  %61 = getelementptr i8, ptr %60, i64 1
  store i8 %.sink, ptr %61, align 1, !tbaa !34
  br label %62

62:                                               ; preds = %53, %27
  %.sink72 = phi i64 [ 2, %53 ], [ 1, %27 ]
  %.sink69 = phi i64 [ -2, %53 ], [ -1, %27 ]
  %63 = load i64, ptr %4, align 8, !tbaa !48
  %64 = add i64 %63, 1
  store i64 %64, ptr %4, align 8, !tbaa !48
  %65 = load ptr, ptr %6, align 8, !tbaa !37
  %66 = getelementptr i8, ptr %65, i64 %.sink72
  store ptr %66, ptr %6, align 8, !tbaa !37
  %67 = add nsw i64 %.03452, %.sink69
  %68 = icmp slt i64 %64, %5
  br i1 %68, label %.lr.ph, label %.thread

.thread:                                          ; preds = %62, %25, %30, %32, %48, %44, %39, %34, %9
  %.2 = phi i64 [ 0, %9 ], [ 1, %34 ], [ 1, %39 ], [ 1, %44 ], [ 1, %48 ], [ -1, %32 ], [ 1, %30 ], [ -1, %25 ], [ 0, %62 ]
  ret i64 %.2
}